; ModuleID = 'bench/libcxx/original/new_helpers.ll'
source_filename = "bench/libcxx/original/new_helpers.ll"
target datalayout = "e-m:e-p270:32:32-p271:32:32-p272:64:64-i64:64-i128:128-f80:128-n8:16:32:64-S128"
target triple = "x86_64-pc-linux-gnu"

%"struct.std::nothrow_t" = type { i8 }

@_ZSt7nothrow = dso_local local_unnamed_addr constant %"struct.std::nothrow_t" zeroinitializer, align 1
@_ZTISt9bad_alloc = external constant ptr

; Function Attrs: cold mustprogress noreturn uwtable
define dso_local void @_ZSt17__throw_bad_allocv() local_unnamed_addr #0 {
  %1 = tail call ptr @__cxa_allocate_exception(i64 8) #3
  tail call void @_ZNSt9bad_allocC1Ev(ptr noundef nonnull align 8 dereferenceable(8) %1) #3
  tail call void @__cxa_throw(ptr nonnull %1, ptr nonnull @_ZTISt9bad_alloc, ptr nonnull @_ZNSt9bad_allocD1Ev) #4
  unreachable
}

declare ptr @__cxa_allocate_exception(i64) local_unnamed_addr

; Function Attrs: nounwind
declare void @_ZNSt9bad_allocC1Ev(ptr noundef nonnull align 8 dereferenceable(8)) unnamed_addr #1

; Function Attrs: nounwind
declare void @_ZNSt9bad_allocD1Ev(ptr noundef nonnull align 8 dereferenceable(8)) unnamed_addr #1

; Function Attrs: cold noreturn
declare void @__cxa_throw(ptr, ptr, ptr) local_unnamed_addr #2


!llvm.linker.options = !{}
!llvm.module.flags = !{!0, !1, !2, !3}

!0 = !{i32 1, !"wchar_size", i32 4}
!1 = !{i32 8, !"PIC Level", i32 2}
!2 = !{i32 7, !"PIE Level", i32 2}
!3 = !{i32 7, !"uwtable", i32 2}
